target datalayout = "e-m:e-p270:32:32-p271:32:32-p272:64:64-i64:64-i128:128-f80:128-n8:16:32:64-S128"
target triple = "x86_64-pc-linux-gnu"

%"class.OpenSubdiv::v3_6_0::Bfr::(anonymous namespace)::FacetArray" = type { ptr, i32, i32 }
%"class.OpenSubdiv::v3_6_0::Bfr::(anonymous namespace)::Facet" = type <{ ptr, i32, [4 x i8] }>

; Function Attrs: mustprogress nounwind uwtable
define internal void @_ZN10OpenSubdiv6v3_6_03Bfr12_GLOBAL__N_15FacetC2EPii(ptr noundef nonnull align 8 dereferenceable(12) %0, ptr noundef %1, i32 noundef %2) unnamed_addr #1 align 2 {
  %4 = alloca ptr, align 8
  %5 = alloca ptr, align 8
  %6 = alloca i32, align 4
  store ptr %0, ptr %4, align 8
  store ptr %1, ptr %5, align 8
  store i32 %2, ptr %6, align 4
  %7 = load ptr, ptr %4, align 8
  %8 = getelementptr inbounds nuw %"class.OpenSubdiv::v3_6_0::Bfr::(anonymous namespace)::Facet", ptr %7, i32 0, i32 0
  %9 = load ptr, ptr %5, align 8
  store ptr %9, ptr %8, align 8
  %10 = getelementptr inbounds nuw %"class.OpenSubdiv::v3_6_0::Bfr::(anonymous namespace)::Facet", ptr %7, i32 0, i32 1
  %11 = load i32, ptr %6, align 4
  store i32 %11, ptr %10, align 8
  ret void
}

; Function Attrs: mustprogress nounwind uwtable
define internal void @_ZN10OpenSubdiv6v3_6_03Bfr12_GLOBAL__N_15FacetD2Ev(ptr noundef nonnull align 8 dereferenceable(12) %0) unnamed_addr #1 align 2 {
  %2 = alloca ptr, align 8
  store ptr %0, ptr %2, align 8
  ret void
}

; Function Attrs: mustprogress nounwind uwtable
define internal void @_ZN10OpenSubdiv6v3_6_03Bfr12_GLOBAL__N_15Facet3SetEiii(ptr noundef nonnull align 8 dereferenceable(12) %0, i32 noundef %1, i32 noundef %2, i32 noundef %3) #1 align 2 {
  %5 = alloca ptr, align 8
  %6 = alloca i32, align 4
  %7 = alloca i32, align 4
  %8 = alloca i32, align 4
  store ptr %0, ptr %5, align 8
  store i32 %1, ptr %6, align 4
  store i32 %2, ptr %7, align 4
  store i32 %3, ptr %8, align 4
  %9 = load ptr, ptr %5, align 8
  %10 = getelementptr inbounds nuw %"class.OpenSubdiv::v3_6_0::Bfr::(anonymous namespace)::Facet", ptr %9, i32 0, i32 0
  %11 = load ptr, ptr %10, align 8
  %12 = getelementptr inbounds nuw %"class.OpenSubdiv::v3_6_0::Bfr::(anonymous namespace)::Facet", ptr %9, i32 0, i32 1
  %13 = load i32, ptr %12, align 8
  %14 = sub nsw i32 %13, 1
  %15 = sext i32 %14 to i64
  %16 = getelementptr inbounds i32, ptr %11, i64 %15
  store i32 -1, ptr %16, align 4
  %17 = load i32, ptr %6, align 4
  %18 = getelementptr inbounds nuw %"class.OpenSubdiv::v3_6_0::Bfr::(anonymous namespace)::Facet", ptr %9, i32 0, i32 0
  %19 = load ptr, ptr %18, align 8
  %20 = getelementptr inbounds i32, ptr %19, i64 0
  store i32 %17, ptr %20, align 4
  %21 = load i32, ptr %7, align 4
  %22 = getelementptr inbounds nuw %"class.OpenSubdiv::v3_6_0::Bfr::(anonymous namespace)::Facet", ptr %9, i32 0, i32 0
  %23 = load ptr, ptr %22, align 8
  %24 = getelementptr inbounds i32, ptr %23, i64 1
  store i32 %21, ptr %24, align 4
  %25 = load i32, ptr %8, align 4
  %26 = getelementptr inbounds nuw %"class.OpenSubdiv::v3_6_0::Bfr::(anonymous namespace)::Facet", ptr %9, i32 0, i32 0
  %27 = load ptr, ptr %26, align 8
  %28 = getelementptr inbounds i32, ptr %27, i64 2
  store i32 %25, ptr %28, align 4
  ret void
}

; Function Attrs: mustprogress uwtable
define internal void @_ZN10OpenSubdiv6v3_6_03Bfr12_GLOBAL__N_110FacetArrayixEi(ptr dead_on_unwind noalias writable sret(%"class.OpenSubdiv::v3_6_0::Bfr::(anonymous namespace)::Facet") align 8 %0, ptr noundef nonnull align 8 dereferenceable(16) %1, i32 noundef %2) #0 align 2 {
  %4 = alloca ptr, align 8
  %5 = alloca ptr, align 8
  %6 = alloca i32, align 4
  store ptr %0, ptr %4, align 8
  store ptr %1, ptr %5, align 8
  store i32 %2, ptr %6, align 4
  %7 = load ptr, ptr %5, align 8
  %8 = getelementptr inbounds nuw %"class.OpenSubdiv::v3_6_0::Bfr::(anonymous namespace)::FacetArray", ptr %7, i32 0, i32 0
  %9 = load ptr, ptr %8, align 8
  %10 = load i32, ptr %6, align 4
  %11 = getelementptr inbounds nuw %"class.OpenSubdiv::v3_6_0::Bfr::(anonymous namespace)::FacetArray", ptr %7, i32 0, i32 2
  %12 = load i32, ptr %11, align 4
  %13 = mul nsw i32 %10, %12
  %14 = sext i32 %13 to i64
  %15 = getelementptr inbounds i32, ptr %9, i64 %14
  %16 = getelementptr inbounds nuw %"class.OpenSubdiv::v3_6_0::Bfr::(anonymous namespace)::FacetArray", ptr %7, i32 0, i32 1
  %17 = load i32, ptr %16, align 8
  call void @_ZN10OpenSubdiv6v3_6_03Bfr12_GLOBAL__N_15FacetC2EPii(ptr noundef nonnull align 8 dereferenceable(12) %0, ptr noundef %15, i32 noundef %17)
  ret void
}

; Function Attrs: mustprogress nounwind uwtable
define internal void @_ZN10OpenSubdiv6v3_6_03Bfr12_GLOBAL__N_110FacetArrayC2EPiii(ptr noundef nonnull align 8 dereferenceable(16) %0, ptr noundef %1, i32 noundef %2, i32 noundef %3) unnamed_addr #1 align 2 {
  %5 = alloca ptr, align 8
  %6 = alloca ptr, align 8
  %7 = alloca i32, align 4
  %8 = alloca i32, align 4
  store ptr %0, ptr %5, align 8
  store ptr %1, ptr %6, align 8
  store i32 %2, ptr %7, align 4
  store i32 %3, ptr %8, align 4
  %9 = load ptr, ptr %5, align 8
  %10 = getelementptr inbounds nuw %"class.OpenSubdiv::v3_6_0::Bfr::(anonymous namespace)::FacetArray", ptr %9, i32 0, i32 0
  %11 = load ptr, ptr %6, align 8
  store ptr %11, ptr %10, align 8
  %12 = getelementptr inbounds nuw %"class.OpenSubdiv::v3_6_0::Bfr::(anonymous namespace)::FacetArray", ptr %9, i32 0, i32 1
  %13 = load i32, ptr %7, align 4
  store i32 %13, ptr %12, align 8
  %14 = getelementptr inbounds nuw %"class.OpenSubdiv::v3_6_0::Bfr::(anonymous namespace)::FacetArray", ptr %9, i32 0, i32 2
  %15 = load i32, ptr %8, align 4
  store i32 %15, ptr %14, align 4
  ret void
}

; Function Attrs: mustprogress uwtable
define internal noundef i32 @_ZN10OpenSubdiv6v3_6_03Bfr12_GLOBAL__N_112appendTriFanENS2_10FacetArrayEii(ptr noundef %0, i32 noundef %1, i32 noundef %2) #0 {
  %4 = alloca ptr, align 8
  %5 = alloca i32, align 4
  %6 = alloca i32, align 4
  %7 = alloca i32, align 4
  %8 = alloca %"class.OpenSubdiv::v3_6_0::Bfr::(anonymous namespace)::Facet", align 8
  store ptr %0, ptr %4, align 8
  store i32 %1, ptr %5, align 4
  store i32 %2, ptr %6, align 4
  store i32 1, ptr %7, align 4
  br label %9

9:                                                ; preds = %33, %3
  %10 = load i32, ptr %7, align 4
  %11 = load i32, ptr %5, align 4
  %12 = icmp sle i32 %10, %11
  br i1 %12, label %13, label %36

13:                                               ; preds = %9
  %14 = load i32, ptr %7, align 4
  %15 = sub nsw i32 %14, 1
  call void @_ZN10OpenSubdiv6v3_6_03Bfr12_GLOBAL__N_110FacetArrayixEi(ptr dead_on_unwind writable sret(%"class.OpenSubdiv::v3_6_0::Bfr::(anonymous namespace)::Facet") align 8 %8, ptr noundef nonnull align 8 dereferenceable(16) %0, i32 noundef %15)
  %16 = load i32, ptr %6, align 4
  %17 = load i32, ptr %7, align 4
  %18 = sub nsw i32 %17, 1
  %19 = add nsw i32 %16, %18
  %20 = load i32, ptr %6, align 4
  %21 = load i32, ptr %7, align 4
  %22 = load i32, ptr %5, align 4
  %23 = icmp slt i32 %21, %22
  br i1 %23, label %24, label %26

24:                                               ; preds = %13
  %25 = load i32, ptr %7, align 4
  br label %27

26:                                               ; preds = %13
  br label %27

27:                                               ; preds = %26, %24
  %28 = phi i32 [ %25, %24 ], [ 0, %26 ]
  %29 = add nsw i32 %20, %28
  %30 = load i32, ptr %6, align 4
  %31 = load i32, ptr %5, align 4
  %32 = add nsw i32 %30, %31
  call void @_ZN10OpenSubdiv6v3_6_03Bfr12_GLOBAL__N_15Facet3SetEiii(ptr noundef nonnull align 8 dereferenceable(12) %8, i32 noundef %19, i32 noundef %29, i32 noundef %32)
  call void @_ZN10OpenSubdiv6v3_6_03Bfr12_GLOBAL__N_15FacetD2Ev(ptr noundef nonnull align 8 dereferenceable(12) %8) #8
  br label %33

33:                                               ; preds = %27
  %34 = load i32, ptr %7, align 4
  %35 = add nsw i32 %34, 1
  store i32 %35, ptr %7, align 4
  br label %9, !llvm.loop !31

36:                                               ; preds = %9
  %37 = load i32, ptr %5, align 4
  ret i32 %37
}

; Function Attrs: mustprogress uwtable
define internal noundef i32 @_ZN10OpenSubdiv6v3_6_03Bfr12_GLOBAL__N_19appendTriENS2_10FacetArrayEiii(ptr noundef %0, i32 noundef %1, i32 noundef %2, i32 noundef %3) #0 personality ptr @__gxx_personality_v0 {
  %5 = alloca ptr, align 8
  %6 = alloca i32, align 4
  %7 = alloca i32, align 4
  %8 = alloca i32, align 4
  %9 = alloca %"class.OpenSubdiv::v3_6_0::Bfr::(anonymous namespace)::Facet", align 8
  %10 = alloca ptr, align 8
  %11 = alloca i32, align 4
  store ptr %0, ptr %5, align 8
  store i32 %1, ptr %6, align 4
  store i32 %2, ptr %7, align 4
  store i32 %3, ptr %8, align 4
  call void @_ZN10OpenSubdiv6v3_6_03Bfr12_GLOBAL__N_110FacetArrayixEi(ptr dead_on_unwind writable sret(%"class.OpenSubdiv::v3_6_0::Bfr::(anonymous namespace)::Facet") align 8 %9, ptr noundef nonnull align 8 dereferenceable(16) %0, i32 noundef 0)
  %12 = load i32, ptr %6, align 4
  %13 = load i32, ptr %7, align 4
  %14 = load i32, ptr %8, align 4
  invoke void @_ZN10OpenSubdiv6v3_6_03Bfr12_GLOBAL__N_15Facet3SetEiii(ptr noundef nonnull align 8 dereferenceable(12) %9, i32 noundef %12, i32 noundef %13, i32 noundef %14)
          to label %15 unwind label %16

15:                                               ; preds = %4
  call void @_ZN10OpenSubdiv6v3_6_03Bfr12_GLOBAL__N_15FacetD2Ev(ptr noundef nonnull align 8 dereferenceable(12) %9) #8
  ret i32 1

16:                                               ; preds = %4
  %17 = landingpad { ptr, i32 }
          cleanup
  %18 = extractvalue { ptr, i32 } %17, 0
  store ptr %18, ptr %10, align 8
  %19 = extractvalue { ptr, i32 } %17, 1
  store i32 %19, ptr %11, align 4
  call void @_ZN10OpenSubdiv6v3_6_03Bfr12_GLOBAL__N_15FacetD2Ev(ptr noundef nonnull align 8 dereferenceable(12) %9) #8
  br label %20

20:                                               ; preds = %16
  %21 = load ptr, ptr %10, align 8
  %22 = load i32, ptr %11, align 4
  %23 = insertvalue { ptr, i32 } poison, ptr %21, 0
  %24 = insertvalue { ptr, i32 } %23, i32 %22, 1
  resume { ptr, i32 } %24
}

; Function Attrs: mustprogress uwtable
define internal void @_ZN10OpenSubdiv6v3_6_03Bfr12_GLOBAL__N_110FacetArrayplEi(ptr dead_on_unwind noalias writable sret(%"class.OpenSubdiv::v3_6_0::Bfr::(anonymous namespace)::FacetArray") align 8 %0, ptr noundef nonnull align 8 dereferenceable(16) %1, i32 noundef %2) #0 align 2 {
  %4 = alloca ptr, align 8
  %5 = alloca ptr, align 8
  %6 = alloca i32, align 4
  store ptr %0, ptr %4, align 8
  store ptr %1, ptr %5, align 8
  store i32 %2, ptr %6, align 4
  %7 = load ptr, ptr %5, align 8
  %8 = getelementptr inbounds nuw %"class.OpenSubdiv::v3_6_0::Bfr::(anonymous namespace)::FacetArray", ptr %7, i32 0, i32 0
  %9 = load ptr, ptr %8, align 8
  %10 = load i32, ptr %6, align 4
  %11 = getelementptr inbounds nuw %"class.OpenSubdiv::v3_6_0::Bfr::(anonymous namespace)::FacetArray", ptr %7, i32 0, i32 2
  %12 = load i32, ptr %11, align 4
  %13 = mul nsw i32 %10, %12
  %14 = sext i32 %13 to i64
  %15 = getelementptr inbounds i32, ptr %9, i64 %14
  %16 = getelementptr inbounds nuw %"class.OpenSubdiv::v3_6_0::Bfr::(anonymous namespace)::FacetArray", ptr %7, i32 0, i32 1
  %17 = load i32, ptr %16, align 8
  %18 = getelementptr inbounds nuw %"class.OpenSubdiv::v3_6_0::Bfr::(anonymous namespace)::FacetArray", ptr %7, i32 0, i32 2
  %19 = load i32, ptr %18, align 4
  call void @_ZN10OpenSubdiv6v3_6_03Bfr12_GLOBAL__N_110FacetArrayC2EPiii(ptr noundef nonnull align 8 dereferenceable(16) %0, ptr noundef %15, i32 noundef %17, i32 noundef %19)
  ret void
}

; Function Attrs: mustprogress nounwind uwtable
define internal void @_ZN10OpenSubdiv6v3_6_03Bfr12_GLOBAL__N_110FacetArrayD2Ev(ptr noundef nonnull align 8 dereferenceable(16) %0) unnamed_addr #1 align 2 {
  %2 = alloca ptr, align 8
  store ptr %0, ptr %2, align 8
  ret void
}

; Function Attrs: mustprogress uwtable
define internal noundef i32 @_ZN10OpenSubdiv6v3_6_03Bfr4qsub15getCenterFacetsEiiNS1_12_GLOBAL__N_110FacetArrayE(i32 noundef %0, i32 noundef %1, ptr noundef %2) #0 align 2 personality ptr @__gxx_personality_v0 {
  %4 = alloca i32, align 4
  %5 = alloca i32, align 4
  %6 = alloca i32, align 4
  %7 = alloca ptr, align 8
  %8 = alloca %"class.OpenSubdiv::v3_6_0::Bfr::(anonymous namespace)::FacetArray", align 8
  %9 = alloca i1, align 1
  %10 = alloca ptr, align 8
  %11 = alloca i32, align 4
  %12 = alloca %"class.OpenSubdiv::v3_6_0::Bfr::(anonymous namespace)::FacetArray", align 8
  %13 = alloca i1, align 1
  store i32 %0, ptr %5, align 4
  store i32 %1, ptr %6, align 4
  store ptr %2, ptr %7, align 8
  %14 = load i32, ptr %5, align 4
  %15 = icmp eq i32 %14, 3
  store i1 false, ptr %9, align 1
  store i1 false, ptr %13, align 1
  br i1 %15, label %16, label %24

16:                                               ; preds = %3
  call void @llvm.memcpy.p0.p0.i64(ptr align 8 %8, ptr align 8 %2, i64 16, i1 false)
  store i1 true, ptr %9, align 1
  %17 = load i32, ptr %6, align 4
  %18 = load i32, ptr %6, align 4
  %19 = add nsw i32 %18, 1
  %20 = load i32, ptr %6, align 4
  %21 = add nsw i32 %20, 2
  %22 = invoke noundef i32 @_ZN10OpenSubdiv6v3_6_03Bfr12_GLOBAL__N_19appendTriENS2_10FacetArrayEiii(ptr noundef %8, i32 noundef %17, i32 noundef %19, i32 noundef %21)
          to label %23 unwind label %38

23:                                               ; preds = %16
  br label %29

24:                                               ; preds = %3
  call void @llvm.memcpy.p0.p0.i64(ptr align 8 %12, ptr align 8 %2, i64 16, i1 false)
  store i1 true, ptr %13, align 1
  %25 = load i32, ptr %5, align 4
  %26 = load i32, ptr %6, align 4
  %27 = invoke noundef i32 @_ZN10OpenSubdiv6v3_6_03Bfr12_GLOBAL__N_112appendTriFanENS2_10FacetArrayEii(ptr noundef %12, i32 noundef %25, i32 noundef %26)
          to label %28 unwind label %42

28:                                               ; preds = %24
  br label %29

29:                                               ; preds = %28, %23
  %30 = phi i32 [ %22, %23 ], [ %27, %28 ]
  store i32 %30, ptr %4, align 4
  %31 = load i1, ptr %13, align 1
  br i1 %31, label %32, label %33

32:                                               ; preds = %29
  call void @_ZN10OpenSubdiv6v3_6_03Bfr12_GLOBAL__N_110FacetArrayD2Ev(ptr noundef nonnull align 8 dereferenceable(16) %12) #8
  br label %33

33:                                               ; preds = %32, %29
  %34 = load i1, ptr %9, align 1
  br i1 %34, label %35, label %36

35:                                               ; preds = %33
  call void @_ZN10OpenSubdiv6v3_6_03Bfr12_GLOBAL__N_110FacetArrayD2Ev(ptr noundef nonnull align 8 dereferenceable(16) %8) #8
  br label %36

36:                                               ; preds = %35, %33
  %37 = load i32, ptr %4, align 4
  ret i32 %37

38:                                               ; preds = %16
  %39 = landingpad { ptr, i32 }
          cleanup
  %40 = extractvalue { ptr, i32 } %39, 0
  store ptr %40, ptr %10, align 8
  %41 = extractvalue { ptr, i32 } %39, 1
  store i32 %41, ptr %11, align 4
  br label %49

42:                                               ; preds = %24
  %43 = landingpad { ptr, i32 }
          cleanup
  %44 = extractvalue { ptr, i32 } %43, 0
  store ptr %44, ptr %10, align 8
  %45 = extractvalue { ptr, i32 } %43, 1
  store i32 %45, ptr %11, align 4
  %46 = load i1, ptr %13, align 1
  br i1 %46, label %47, label %48

47:                                               ; preds = %42
  call void @_ZN10OpenSubdiv6v3_6_03Bfr12_GLOBAL__N_110FacetArrayD2Ev(ptr noundef nonnull align 8 dereferenceable(16) %12) #8
  br label %48

48:                                               ; preds = %47, %42
  br label %49

49:                                               ; preds = %48, %38
  %50 = load i1, ptr %9, align 1
  br i1 %50, label %51, label %52

51:                                               ; preds = %49
  call void @_ZN10OpenSubdiv6v3_6_03Bfr12_GLOBAL__N_110FacetArrayD2Ev(ptr noundef nonnull align 8 dereferenceable(16) %8) #8
  br label %52

52:                                               ; preds = %51, %49
  br label %53

53:                                               ; preds = %52
  %54 = load ptr, ptr %10, align 8
  %55 = load i32, ptr %11, align 4
  %56 = insertvalue { ptr, i32 } poison, ptr %54, 0
  %57 = insertvalue { ptr, i32 } %56, i32 %55, 1
  resume { ptr, i32 } %57
}

; Function Attrs: mustprogress uwtable
define internal noundef i32 @_ZN10OpenSubdiv6v3_6_03Bfr4qsub16GetUniformFacetsEiibNS1_12_GLOBAL__N_110FacetArrayE(i32 noundef %0, i32 noundef %1, i1 noundef zeroext %2, ptr noundef %3) #0 align 2 personality ptr @__gxx_personality_v0 {
  %5 = alloca i32, align 4
  %6 = alloca i32, align 4
  %7 = alloca i32, align 4
  %8 = alloca i8, align 1
  %9 = alloca ptr, align 8
  %10 = alloca %"class.OpenSubdiv::v3_6_0::Bfr::(anonymous namespace)::FacetArray", align 8
  %11 = alloca ptr, align 8
  %12 = alloca i32, align 4
  %13 = alloca i32, align 4
  %14 = alloca i32, align 4
  %15 = alloca i32, align 4
  %16 = alloca i32, align 4
  %17 = alloca %"class.OpenSubdiv::v3_6_0::Bfr::(anonymous namespace)::FacetArray", align 8
  store i32 %0, ptr %6, align 4
  store i32 %1, ptr %7, align 4
  %18 = zext i1 %2 to i8
  store i8 %18, ptr %8, align 1
  store ptr %3, ptr %9, align 8
  %19 = load i32, ptr %7, align 4
  %20 = icmp eq i32 %19, 1
  br i1 %20, label %21, label %29

21:                                               ; preds = %4
  %22 = load i32, ptr %6, align 4
  call void @llvm.memcpy.p0.p0.i64(ptr align 8 %10, ptr align 8 %3, i64 16, i1 false)
  %23 = invoke noundef i32 @_ZN10OpenSubdiv6v3_6_03Bfr4qsub15getCenterFacetsEiiNS1_12_GLOBAL__N_110FacetArrayE(i32 noundef %22, i32 noundef 0, ptr noundef %10)
          to label %24 unwind label %25

24:                                               ; preds = %21
  store i32 %23, ptr %5, align 4
  call void @_ZN10OpenSubdiv6v3_6_03Bfr12_GLOBAL__N_110FacetArrayD2Ev(ptr noundef nonnull align 8 dereferenceable(16) %10) #8
  br label %64

25:                                               ; preds = %21
  %26 = landingpad { ptr, i32 }
          cleanup
  %27 = extractvalue { ptr, i32 } %26, 0
  store ptr %27, ptr %11, align 8
  %28 = extractvalue { ptr, i32 } %26, 1
  store i32 %28, ptr %12, align 4
  call void @_ZN10OpenSubdiv6v3_6_03Bfr12_GLOBAL__N_110FacetArrayD2Ev(ptr noundef nonnull align 8 dereferenceable(16) %10) #8
  br label %66

29:                                               ; preds = %4
  %30 = load i32, ptr %7, align 4
  %31 = add nsw i32 %30, 1
  %32 = sdiv i32 %31, 2
  store i32 %32, ptr %13, align 4
  store i32 0, ptr %14, align 4
  store i32 0, ptr %15, align 4
  store i32 0, ptr %16, align 4
  br label %33

33:                                               ; preds = %53, %29
  %34 = load i32, ptr %16, align 4
  %35 = load i32, ptr %13, align 4
  %36 = icmp slt i32 %34, %35
  br i1 %36, label %37, label %62

37:                                               ; preds = %33
  %38 = load i32, ptr %6, align 4
  %39 = load i32, ptr %7, align 4
  %40 = load i32, ptr %15, align 4
  %41 = load i8, ptr %8, align 1
  %42 = trunc i8 %41 to i1
  %43 = load i32, ptr %14, align 4
  call void @_ZN10OpenSubdiv6v3_6_03Bfr12_GLOBAL__N_110FacetArrayplEi(ptr dead_on_unwind writable sret(%"class.OpenSubdiv::v3_6_0::Bfr::(anonymous namespace)::FacetArray") align 8 %17, ptr noundef nonnull align 8 dereferenceable(16) %3, i32 noundef %43)
  %44 = invoke noundef i32 @_ZN10OpenSubdiv6v3_6_03Bfr4qsub21getInteriorRingFacetsEiiibNS1_12_GLOBAL__N_110FacetArrayE(i32 noundef %38, i32 noundef %39, i32 noundef %40, i1 noundef zeroext %42, ptr noundef %17)
          to label %45 unwind label %58

45:                                               ; preds = %37
  %46 = load i32, ptr %14, align 4
  %47 = add nsw i32 %46, %44
  store i32 %47, ptr %14, align 4
  call void @_ZN10OpenSubdiv6v3_6_03Bfr12_GLOBAL__N_110FacetArrayD2Ev(ptr noundef nonnull align 8 dereferenceable(16) %17) #8
  %48 = load i32, ptr %6, align 4
  %49 = load i32, ptr %7, align 4
  %50 = mul nsw i32 %48, %49
  %51 = load i32, ptr %15, align 4
  %52 = add nsw i32 %51, %50
  store i32 %52, ptr %15, align 4
  br label %53

53:                                               ; preds = %45
  %54 = load i32, ptr %16, align 4
  %55 = add nsw i32 %54, 1
  store i32 %55, ptr %16, align 4
  %56 = load i32, ptr %7, align 4
  %57 = sub nsw i32 %56, 2
  store i32 %57, ptr %7, align 4
  br label %33, !llvm.loop !36

58:                                               ; preds = %37
  %59 = landingpad { ptr, i32 }
          cleanup
  %60 = extractvalue { ptr, i32 } %59, 0
  store ptr %60, ptr %11, align 8
  %61 = extractvalue { ptr, i32 } %59, 1
  store i32 %61, ptr %12, align 4
  call void @_ZN10OpenSubdiv6v3_6_03Bfr12_GLOBAL__N_110FacetArrayD2Ev(ptr noundef nonnull align 8 dereferenceable(16) %17) #8
  br label %66

62:                                               ; preds = %33
  %63 = load i32, ptr %14, align 4
  store i32 %63, ptr %5, align 4
  br label %64

64:                                               ; preds = %62, %24
  %65 = load i32, ptr %5, align 4
  ret i32 %65

66:                                               ; preds = %58, %25
  %67 = load ptr, ptr %11, align 8
  %68 = load i32, ptr %12, align 4
  %69 = insertvalue { ptr, i32 } poison, ptr %67, 0
  %70 = insertvalue { ptr, i32 } %69, i32 %68, 1
  resume { ptr, i32 } %70
}