; Function Attrs: mustprogress nofree norecurse nosync nounwind memory(write, argmem: readwrite, inaccessiblemem: readwrite) uwtable
define internal fastcc noundef i32 @_ZN10OpenSubdiv6v3_6_03Bfr4qsub16GetUniformFacetsEiibNS1_12_GLOBAL__N_110FacetArrayE(i32 noundef %0, i32 noundef %1, i1 noundef zeroext %2, ptr nocapture noundef readonly %3) unnamed_addr #14 align 2 personality ptr @__gxx_personality_v0 {
  %5 = alloca %"class.OpenSubdiv::v3_6_0::Bfr::(anonymous namespace)::FacetArray", align 8
  %6 = icmp eq i32 %1, 1
  br i1 %6, label %7, label %28

7:                                                ; preds = %4
  %.sroa.0.0.copyload = load ptr, ptr %3, align 8
  %.sroa.2.0..sroa_idx = getelementptr inbounds i8, ptr %3, i64 8
  %.sroa.2.0.copyload = load i32, ptr %.sroa.2.0..sroa_idx, align 8
  %.sroa.4.0..sroa_idx = getelementptr inbounds i8, ptr %3, i64 12
  %.sroa.4.0.copyload = load i32, ptr %.sroa.4.0..sroa_idx, align 4
  %.not.i = icmp eq i32 %0, 3
  br i1 %.not.i, label %_ZN10OpenSubdiv6v3_6_03Bfr12_GLOBAL__N_112appendTriFanENS2_10FacetArrayEii.exit.thread.i, label %13

_ZN10OpenSubdiv6v3_6_03Bfr12_GLOBAL__N_112appendTriFanENS2_10FacetArrayEii.exit.thread.i: ; preds = %7
  %8 = sext i32 %.sroa.2.0.copyload to i64
  %9 = getelementptr i32, ptr %.sroa.0.0.copyload, i64 %8
  %10 = getelementptr i8, ptr %9, i64 -4
  store i32 -1, ptr %10, align 4
  store i32 0, ptr %.sroa.0.0.copyload, align 4
  %11 = getelementptr inbounds i8, ptr %.sroa.0.0.copyload, i64 4
  store i32 1, ptr %11, align 4
  %12 = getelementptr inbounds i8, ptr %.sroa.0.0.copyload, i64 8
  store i32 2, ptr %12, align 4
  br label %_ZN10OpenSubdiv6v3_6_03Bfr4qsub15getCenterFacetsEiiNS1_12_GLOBAL__N_110FacetArrayE.exit

13:                                               ; preds = %7
  %.not17.i.i = icmp slt i32 %0, 1
  br i1 %.not17.i.i, label %_ZN10OpenSubdiv6v3_6_03Bfr4qsub15getCenterFacetsEiiNS1_12_GLOBAL__N_110FacetArrayE.exit, label %.lr.ph.i.i

.lr.ph.i.i:                                       ; preds = %13
  %14 = sext i32 %.sroa.2.0.copyload to i64
  %15 = sext i32 %.sroa.4.0.copyload to i64
  %16 = zext nneg i32 %0 to i64
  br label %17

17:                                               ; preds = %17, %.lr.ph.i.i
  %indvars.iv.i = phi i64 [ %indvars.iv.next.i, %17 ], [ 1, %.lr.ph.i.i ]
  %18 = add nsw i64 %indvars.iv.i, -1
  %19 = mul nsw i64 %18, %15
  %20 = getelementptr inbounds i32, ptr %.sroa.0.0.copyload, i64 %19
  %21 = trunc nuw nsw i64 %indvars.iv.i to i32
  %.reass.i.i = add i32 %21, -1
  %22 = icmp ult i64 %indvars.iv.i, %16
  %23 = select i1 %22, i32 %21, i32 0
  %24 = getelementptr i32, ptr %20, i64 %14
  %25 = getelementptr i8, ptr %24, i64 -4
  store i32 -1, ptr %25, align 4
  store i32 %.reass.i.i, ptr %20, align 4
  %26 = getelementptr inbounds i8, ptr %20, i64 4
  store i32 %23, ptr %26, align 4
  %27 = getelementptr inbounds i8, ptr %20, i64 8
  store i32 %0, ptr %27, align 4
  %indvars.iv.next.i = add nuw nsw i64 %indvars.iv.i, 1
  %exitcond.not.i.i = icmp eq i64 %indvars.iv.i, %16
  br i1 %exitcond.not.i.i, label %_ZN10OpenSubdiv6v3_6_03Bfr4qsub15getCenterFacetsEiiNS1_12_GLOBAL__N_110FacetArrayE.exit, label %17, !llvm.loop !36

28:                                               ; preds = %4
  %29 = icmp sgt i32 %1, 0
  br i1 %29, label %.lr.ph, label %_ZN10OpenSubdiv6v3_6_03Bfr4qsub15getCenterFacetsEiiNS1_12_GLOBAL__N_110FacetArrayE.exit

.lr.ph:                                           ; preds = %28
  %30 = add nuw nsw i32 %1, 1
  %31 = lshr i32 %30, 1
  %32 = getelementptr inbounds nuw i8, ptr %3, i64 12
  %33 = getelementptr inbounds nuw i8, ptr %3, i64 8
  %34 = getelementptr inbounds nuw i8, ptr %5, i64 8
  %35 = getelementptr inbounds nuw i8, ptr %5, i64 12
  br label %36

36:                                               ; preds = %.lr.ph, %36
  %.031 = phi i32 [ 0, %.lr.ph ], [ %47, %36 ]
  %.01930 = phi i32 [ 0, %.lr.ph ], [ %46, %36 ]
  %.02029 = phi i32 [ 0, %.lr.ph ], [ %44, %36 ]
  %.02428 = phi i32 [ %1, %.lr.ph ], [ %48, %36 ]
  tail call void @llvm.experimental.noalias.scope.decl(metadata !87)
  %37 = load ptr, ptr %3, align 8, !noalias !87
  %38 = load i32, ptr %32, align 4, !noalias !87
  %39 = mul nsw i32 %38, %.02029
  %40 = sext i32 %39 to i64
  %41 = getelementptr inbounds i32, ptr %37, i64 %40
  %42 = load i32, ptr %33, align 8, !noalias !87
  store ptr %41, ptr %5, align 8, !alias.scope !87
  store i32 %42, ptr %34, align 8, !alias.scope !87
  store i32 %38, ptr %35, align 4, !alias.scope !87
  %43 = call fastcc noundef i32 @_ZN10OpenSubdiv6v3_6_03Bfr4qsub21getInteriorRingFacetsEiiibNS1_12_GLOBAL__N_110FacetArrayE(i32 noundef %0, i32 noundef %.02428, i32 noundef %.01930, i1 noundef zeroext %2, ptr noundef nonnull %5)
  %44 = add nsw i32 %43, %.02029
  %45 = mul nsw i32 %.02428, %0
  %46 = add nsw i32 %.01930, %45
  %47 = add nuw nsw i32 %.031, 1
  %48 = add nsw i32 %.02428, -2
  %exitcond.not = icmp eq i32 %47, %31
  br i1 %exitcond.not, label %_ZN10OpenSubdiv6v3_6_03Bfr4qsub15getCenterFacetsEiiNS1_12_GLOBAL__N_110FacetArrayE.exit, label %36, !llvm.loop !90

_ZN10OpenSubdiv6v3_6_03Bfr4qsub15getCenterFacetsEiiNS1_12_GLOBAL__N_110FacetArrayE.exit: ; preds = %36, %17, %28, %_ZN10OpenSubdiv6v3_6_03Bfr12_GLOBAL__N_112appendTriFanENS2_10FacetArrayEii.exit.thread.i, %13
  %.021 = phi i32 [ 1, %_ZN10OpenSubdiv6v3_6_03Bfr12_GLOBAL__N_112appendTriFanENS2_10FacetArrayEii.exit.thread.i ], [ %0, %13 ], [ 0, %28 ], [ %0, %17 ], [ %44, %36 ]
  ret i32 %.021
}